target datalayout = "e-m:e-p270:32:32-p271:32:32-p272:64:64-i64:64-i128:128-f80:128-n8:16:32:64-S128"
target triple = "x86_64-pc-linux-gnu"

@.str.324 = private unnamed_addr constant [2 x i8] c" \00", align 1

; Function Attrs: nounwind uwtable
define internal void @str_fixup_spaces(ptr noundef %0, ptr noundef %1) #0 {
  %3 = alloca ptr, align 8
  %4 = alloca ptr, align 8
  %5 = alloca ptr, align 8
  %6 = alloca ptr, align 8
  store ptr %0, ptr %3, align 8
  store ptr %1, ptr %4, align 8
  %7 = load ptr, ptr %3, align 8
  %8 = load ptr, ptr %7, align 8
  store ptr %8, ptr %5, align 8
  %9 = load ptr, ptr %4, align 8
  %10 = load ptr, ptr %9, align 8
  store ptr %10, ptr %6, align 8
  %11 = load ptr, ptr %5, align 8
  %12 = icmp ne ptr %11, null
  br i1 %12, label %13, label %20

13:                                               ; preds = %2
  %14 = load ptr, ptr %6, align 8
  %15 = icmp ne ptr %14, null
  br i1 %15, label %16, label %20

16:                                               ; preds = %13
  %17 = load ptr, ptr %6, align 8
  %18 = load ptr, ptr %5, align 8
  %19 = icmp ult ptr %17, %18
  br i1 %19, label %20, label %21

20:                                               ; preds = %16, %13, %2
  br label %83

21:                                               ; preds = %16
  call void @str_strip(ptr noundef %5, ptr noundef %6, ptr noundef @.str.324, i64 noundef 1)
  br label %22

22:                                               ; preds = %42, %21
  %23 = call ptr @__ctype_b_loc() #11
  %24 = load ptr, ptr %23, align 8
  %25 = load ptr, ptr %5, align 8
  %26 = getelementptr inbounds i8, ptr %25, i64 0
  %27 = load i8, ptr %26, align 1
  %28 = sext i8 %27 to i32
  %29 = and i32 %28, 255
  %30 = sext i32 %29 to i64
  %31 = getelementptr inbounds i16, ptr %24, i64 %30
  %32 = load i16, ptr %31, align 2
  %33 = zext i16 %32 to i32
  %34 = and i32 %33, 8
  %35 = icmp ne i32 %34, 0
  br i1 %35, label %40, label %36

36:                                               ; preds = %22
  %37 = load ptr, ptr %5, align 8
  %38 = load ptr, ptr %6, align 8
  %39 = icmp ule ptr %37, %38
  br label %40

40:                                               ; preds = %36, %22
  %41 = phi i1 [ false, %22 ], [ %39, %36 ]
  br i1 %41, label %42, label %45

42:                                               ; preds = %40
  %43 = load ptr, ptr %5, align 8
  %44 = getelementptr inbounds i8, ptr %43, i32 1
  store ptr %44, ptr %5, align 8
  br label %22

45:                                               ; preds = %40
  br label %46

46:                                               ; preds = %66, %45
  %47 = call ptr @__ctype_b_loc() #11
  %48 = load ptr, ptr %47, align 8
  %49 = load ptr, ptr %6, align 8
  %50 = getelementptr inbounds i8, ptr %49, i64 0
  %51 = load i8, ptr %50, align 1
  %52 = sext i8 %51 to i32
  %53 = and i32 %52, 255
  %54 = sext i32 %53 to i64
  %55 = getelementptr inbounds i16, ptr %48, i64 %54
  %56 = load i16, ptr %55, align 2
  %57 = zext i16 %56 to i32
  %58 = and i32 %57, 8
  %59 = icmp ne i32 %58, 0
  br i1 %59, label %64, label %60

60:                                               ; preds = %46
  %61 = load ptr, ptr %6, align 8
  %62 = load ptr, ptr %5, align 8
  %63 = icmp uge ptr %61, %62
  br label %64

64:                                               ; preds = %60, %46
  %65 = phi i1 [ false, %46 ], [ %63, %60 ]
  br i1 %65, label %66, label %69

66:                                               ; preds = %64
  %67 = load ptr, ptr %6, align 8
  %68 = getelementptr inbounds i8, ptr %67, i32 -1
  store ptr %68, ptr %6, align 8
  br label %46

69:                                               ; preds = %64
  %70 = load ptr, ptr %6, align 8
  %71 = getelementptr inbounds i8, ptr %70, i64 1
  %72 = load i8, ptr %71, align 1
  %73 = sext i8 %72 to i32
  %74 = icmp eq i32 %73, 47
  br i1 %74, label %75, label %78

75:                                               ; preds = %69
  %76 = load ptr, ptr %6, align 8
  %77 = getelementptr inbounds i8, ptr %76, i32 1
  store ptr %77, ptr %6, align 8
  br label %78

78:                                               ; preds = %75, %69
  %79 = load ptr, ptr %5, align 8
  %80 = load ptr, ptr %3, align 8
  store ptr %79, ptr %80, align 8
  %81 = load ptr, ptr %6, align 8
  %82 = load ptr, ptr %4, align 8
  store ptr %81, ptr %82, align 8
  br label %83

83:                                               ; preds = %78, %20
  ret void
}