; Function Attrs: nofree nounwind memory(readwrite, inaccessiblemem: none) uwtable
define internal fastcc void @str_fixup_spaces(ptr nocapture noundef %0, ptr nocapture noundef %1) unnamed_addr #11 {
  %3 = alloca ptr, align 8
  %4 = alloca ptr, align 8
  %5 = load ptr, ptr %0, align 8
  store ptr %5, ptr %3, align 8
  %6 = load ptr, ptr %1, align 8
  store ptr %6, ptr %4, align 8
  %7 = icmp eq ptr %5, null
  %8 = icmp eq ptr %6, null
  %9 = icmp ult ptr %6, %5
  %10 = or i1 %8, %9
  %or.cond7 = select i1 %7, i1 true, i1 %10
  br i1 %or.cond7, label %38, label %11

11:                                               ; preds = %2
  call fastcc void @str_strip(ptr noundef nonnull %3, ptr noundef nonnull %4, ptr noundef nonnull @.str.324, i64 noundef 1)
  %12 = tail call ptr @__ctype_b_loc() #21
  %13 = load ptr, ptr %12, align 8
  %14 = load ptr, ptr %4, align 8
  %.promoted = load ptr, ptr %3, align 8
  br label %15

15:                                               ; preds = %15, %11
  %16 = phi ptr [ %24, %15 ], [ %.promoted, %11 ]
  %17 = load i8, ptr %16, align 1
  %18 = zext i8 %17 to i64
  %19 = getelementptr inbounds i16, ptr %13, i64 %18
  %20 = load i16, ptr %19, align 2
  %21 = and i16 %20, 8
  %.not = icmp eq i16 %21, 0
  %22 = icmp ule ptr %16, %14
  %23 = select i1 %.not, i1 %22, i1 false
  %24 = getelementptr inbounds i8, ptr %16, i64 1
  br i1 %23, label %15, label %.preheader

.preheader:                                       ; preds = %15, %.preheader
  %25 = phi ptr [ %33, %.preheader ], [ %14, %15 ]
  %26 = load i8, ptr %25, align 1
  %27 = zext i8 %26 to i64
  %28 = getelementptr inbounds i16, ptr %13, i64 %27
  %29 = load i16, ptr %28, align 2
  %30 = and i16 %29, 8
  %.not6 = icmp eq i16 %30, 0
  %31 = icmp uge ptr %25, %16
  %32 = and i1 %31, %.not6
  %33 = getelementptr inbounds i8, ptr %25, i64 -1
  br i1 %32, label %.preheader, label %34

34:                                               ; preds = %.preheader
  %35 = getelementptr inbounds i8, ptr %25, i64 1
  %36 = load i8, ptr %35, align 1
  %37 = icmp eq i8 %36, 47
  %spec.store.select = select i1 %37, ptr %35, ptr %25
  store ptr %16, ptr %0, align 8
  store ptr %spec.store.select, ptr %1, align 8
  br label %38

38:                                               ; preds = %2, %34
  ret void
}